target datalayout = "e-m:e-p270:32:32-p271:32:32-p272:64:64-i64:64-i128:128-f80:128-n8:16:32:64-S128"
target triple = "x86_64-pc-linux-gnu"

%struct.LogicalTapeSet = type { ptr, ptr, i32, i64, i64, i64, i8, ptr, i64, i64, i8 }
%struct.SharedFileSet = type { %struct.FileSet, i8, i32 }
%struct.FileSet = type { i32, i32, i32, [8 x i32] }
%struct.TapeShare = type { i64 }
%struct.LogicalTape = type { ptr, i8, i8, i8, i64, i64, i64, i64, ptr, i32, i32, i32, i32, ptr, i32, i32 }

; Function Attrs: nounwind uwtable
define internal ptr @ltsCreateTape(ptr noundef %0) #0 {
  %2 = alloca ptr, align 8
  %3 = alloca ptr, align 8
  store ptr %0, ptr %2, align 8
  call void @llvm.lifetime.start.p0(i64 8, ptr %3) #7
  %4 = call ptr @palloc(i64 noundef 88)
  store ptr %4, ptr %3, align 8
  %5 = load ptr, ptr %2, align 8
  %6 = load ptr, ptr %3, align 8
  %7 = getelementptr inbounds nuw %struct.LogicalTape, ptr %6, i32 0, i32 0
  store ptr %5, ptr %7, align 8
  %8 = load ptr, ptr %3, align 8
  %9 = getelementptr inbounds nuw %struct.LogicalTape, ptr %8, i32 0, i32 1
  store i8 1, ptr %9, align 8
  %10 = load ptr, ptr %3, align 8
  %11 = getelementptr inbounds nuw %struct.LogicalTape, ptr %10, i32 0, i32 2
  store i8 0, ptr %11, align 1
  %12 = load ptr, ptr %3, align 8
  %13 = getelementptr inbounds nuw %struct.LogicalTape, ptr %12, i32 0, i32 3
  store i8 0, ptr %13, align 2
  %14 = load ptr, ptr %3, align 8
  %15 = getelementptr inbounds nuw %struct.LogicalTape, ptr %14, i32 0, i32 4
  store i64 -1, ptr %15, align 8
  %16 = load ptr, ptr %3, align 8
  %17 = getelementptr inbounds nuw %struct.LogicalTape, ptr %16, i32 0, i32 5
  store i64 -1, ptr %17, align 8
  %18 = load ptr, ptr %3, align 8
  %19 = getelementptr inbounds nuw %struct.LogicalTape, ptr %18, i32 0, i32 6
  store i64 -1, ptr %19, align 8
  %20 = load ptr, ptr %3, align 8
  %21 = getelementptr inbounds nuw %struct.LogicalTape, ptr %20, i32 0, i32 7
  store i64 0, ptr %21, align 8
  %22 = load ptr, ptr %3, align 8
  %23 = getelementptr inbounds nuw %struct.LogicalTape, ptr %22, i32 0, i32 8
  store ptr null, ptr %23, align 8
  %24 = load ptr, ptr %3, align 8
  %25 = getelementptr inbounds nuw %struct.LogicalTape, ptr %24, i32 0, i32 9
  store i32 0, ptr %25, align 8
  %26 = load ptr, ptr %3, align 8
  %27 = getelementptr inbounds nuw %struct.LogicalTape, ptr %26, i32 0, i32 10
  store i32 1073741823, ptr %27, align 4
  %28 = load ptr, ptr %3, align 8
  %29 = getelementptr inbounds nuw %struct.LogicalTape, ptr %28, i32 0, i32 11
  store i32 0, ptr %29, align 8
  %30 = load ptr, ptr %3, align 8
  %31 = getelementptr inbounds nuw %struct.LogicalTape, ptr %30, i32 0, i32 12
  store i32 0, ptr %31, align 4
  %32 = load ptr, ptr %3, align 8
  %33 = getelementptr inbounds nuw %struct.LogicalTape, ptr %32, i32 0, i32 13
  store ptr null, ptr %33, align 8
  %34 = load ptr, ptr %3, align 8
  %35 = getelementptr inbounds nuw %struct.LogicalTape, ptr %34, i32 0, i32 14
  store i32 0, ptr %35, align 8
  %36 = load ptr, ptr %3, align 8
  %37 = getelementptr inbounds nuw %struct.LogicalTape, ptr %36, i32 0, i32 15
  store i32 0, ptr %37, align 4
  %38 = load ptr, ptr %3, align 8
  call void @llvm.lifetime.end.p0(i64 8, ptr %3) #7
  ret ptr %38
}

; Function Attrs: nounwind uwtable
define dso_local ptr @LogicalTapeImport(ptr noundef %0, i32 noundef %1, ptr noundef %2) #0 {
  %4 = alloca ptr, align 8
  %5 = alloca i32, align 4
  %6 = alloca ptr, align 8
  %7 = alloca ptr, align 8
  %8 = alloca i64, align 8
  %9 = alloca [1024 x i8], align 16
  %10 = alloca ptr, align 8
  %11 = alloca i64, align 8
  store ptr %0, ptr %4, align 8
  store i32 %1, ptr %5, align 4
  store ptr %2, ptr %6, align 8
  call void @llvm.lifetime.start.p0(i64 8, ptr %7) #7
  call void @llvm.lifetime.start.p0(i64 8, ptr %8) #7
  call void @llvm.lifetime.start.p0(i64 1024, ptr %9) #7
  call void @llvm.lifetime.start.p0(i64 8, ptr %10) #7
  call void @llvm.lifetime.start.p0(i64 8, ptr %11) #7
  %12 = load ptr, ptr %4, align 8
  %13 = call ptr @ltsCreateTape(ptr noundef %12)
  store ptr %13, ptr %7, align 8
  %14 = load i32, ptr %5, align 4
  %15 = trunc i32 %14 to i16
  %16 = getelementptr inbounds [1024 x i8], ptr %9, i64 0, i64 0
  %17 = call i32 @pg_itoa(i16 noundef signext %15, ptr noundef %16)
  %18 = load ptr, ptr %4, align 8
  %19 = getelementptr inbounds nuw %struct.LogicalTapeSet, ptr %18, i32 0, i32 1
  %20 = load ptr, ptr %19, align 8
  %21 = getelementptr inbounds nuw %struct.SharedFileSet, ptr %20, i32 0, i32 0
  %22 = getelementptr inbounds [1024 x i8], ptr %9, i64 0, i64 0
  %23 = call ptr @BufFileOpenFileSet(ptr noundef %21, ptr noundef %22, i32 noundef 0, i1 noundef zeroext false)
  store ptr %23, ptr %10, align 8
  %24 = load ptr, ptr %10, align 8
  %25 = call i64 @BufFileSize(ptr noundef %24)
  store i64 %25, ptr %11, align 8
  %26 = load ptr, ptr %6, align 8
  %27 = getelementptr inbounds nuw %struct.TapeShare, ptr %26, i32 0, i32 0
  %28 = load i64, ptr %27, align 8
  %29 = load ptr, ptr %7, align 8
  %30 = getelementptr inbounds nuw %struct.LogicalTape, ptr %29, i32 0, i32 4
  store i64 %28, ptr %30, align 8
  %31 = load ptr, ptr %4, align 8
  %32 = getelementptr inbounds nuw %struct.LogicalTapeSet, ptr %31, i32 0, i32 0
  %33 = load ptr, ptr %32, align 8
  %34 = icmp eq ptr %33, null
  br i1 %34, label %35, label %41

35:                                               ; preds = %3
  %36 = load ptr, ptr %10, align 8
  %37 = load ptr, ptr %4, align 8
  %38 = getelementptr inbounds nuw %struct.LogicalTapeSet, ptr %37, i32 0, i32 0
  store ptr %36, ptr %38, align 8
  %39 = load ptr, ptr %7, align 8
  %40 = getelementptr inbounds nuw %struct.LogicalTape, ptr %39, i32 0, i32 7
  store i64 0, ptr %40, align 8
  br label %49

41:                                               ; preds = %3
  %42 = load ptr, ptr %4, align 8
  %43 = getelementptr inbounds nuw %struct.LogicalTapeSet, ptr %42, i32 0, i32 0
  %44 = load ptr, ptr %43, align 8
  %45 = load ptr, ptr %10, align 8
  %46 = call i64 @BufFileAppend(ptr noundef %44, ptr noundef %45)
  %47 = load ptr, ptr %7, align 8
  %48 = getelementptr inbounds nuw %struct.LogicalTape, ptr %47, i32 0, i32 7
  store i64 %46, ptr %48, align 8
  br label %49

49:                                               ; preds = %41, %35
  %50 = load i64, ptr %11, align 8
  %51 = icmp ult i64 1073741823, %50
  br i1 %51, label %52, label %53

52:                                               ; preds = %49
  br label %55

53:                                               ; preds = %49
  %54 = load i64, ptr %11, align 8
  br label %55

55:                                               ; preds = %53, %52
  %56 = phi i64 [ 1073741823, %52 ], [ %54, %53 ]
  %57 = trunc i64 %56 to i32
  %58 = load ptr, ptr %7, align 8
  %59 = getelementptr inbounds nuw %struct.LogicalTape, ptr %58, i32 0, i32 10
  store i32 %57, ptr %59, align 4
  %60 = load i64, ptr %11, align 8
  %61 = sdiv i64 %60, 8192
  store i64 %61, ptr %8, align 8
  %62 = load ptr, ptr %7, align 8
  %63 = getelementptr inbounds nuw %struct.LogicalTape, ptr %62, i32 0, i32 7
  %64 = load i64, ptr %63, align 8
  %65 = load ptr, ptr %4, align 8
  %66 = getelementptr inbounds nuw %struct.LogicalTapeSet, ptr %65, i32 0, i32 3
  %67 = load i64, ptr %66, align 8
  %68 = sub i64 %64, %67
  %69 = load ptr, ptr %4, align 8
  %70 = getelementptr inbounds nuw %struct.LogicalTapeSet, ptr %69, i32 0, i32 5
  %71 = load i64, ptr %70, align 8
  %72 = add i64 %71, %68
  store i64 %72, ptr %70, align 8
  %73 = load ptr, ptr %7, align 8
  %74 = getelementptr inbounds nuw %struct.LogicalTape, ptr %73, i32 0, i32 7
  %75 = load i64, ptr %74, align 8
  %76 = load i64, ptr %8, align 8
  %77 = add i64 %75, %76
  %78 = load ptr, ptr %4, align 8
  %79 = getelementptr inbounds nuw %struct.LogicalTapeSet, ptr %78, i32 0, i32 3
  store i64 %77, ptr %79, align 8
  %80 = load ptr, ptr %4, align 8
  %81 = getelementptr inbounds nuw %struct.LogicalTapeSet, ptr %80, i32 0, i32 3
  %82 = load i64, ptr %81, align 8
  %83 = load ptr, ptr %4, align 8
  %84 = getelementptr inbounds nuw %struct.LogicalTapeSet, ptr %83, i32 0, i32 4
  store i64 %82, ptr %84, align 8
  %85 = load ptr, ptr %7, align 8
  call void @llvm.lifetime.end.p0(i64 8, ptr %11) #7
  call void @llvm.lifetime.end.p0(i64 8, ptr %10) #7
  call void @llvm.lifetime.end.p0(i64 1024, ptr %9) #7
  call void @llvm.lifetime.end.p0(i64 8, ptr %8) #7
  call void @llvm.lifetime.end.p0(i64 8, ptr %7) #7
  ret ptr %85
}