; Function Attrs: nounwind uwtable
define dso_local noundef ptr @LogicalTapeImport(ptr noundef %0, i32 noundef %1, ptr noundef readonly captures(none) %2) local_unnamed_addr #0 {
  %4 = alloca [1024 x i8], align 16
  call void @llvm.lifetime.start.p0(i64 1024, ptr nonnull %4) #10
  %5 = tail call ptr @palloc(i64 noundef 88) #10
  store ptr %0, ptr %5, align 8
  %6 = getelementptr inbounds nuw i8, ptr %5, i64 8
  store i8 1, ptr %6, align 8
  %7 = getelementptr inbounds nuw i8, ptr %5, i64 9
  store i8 0, ptr %7, align 1
  %8 = getelementptr inbounds nuw i8, ptr %5, i64 10
  store i8 0, ptr %8, align 2
  %9 = getelementptr inbounds nuw i8, ptr %5, i64 16
  %10 = getelementptr inbounds nuw i8, ptr %5, i64 40
  tail call void @llvm.memset.p0.i64(ptr noundef nonnull align 8 dereferenceable(24) %9, i8 -1, i64 24, i1 false)
  %11 = getelementptr inbounds nuw i8, ptr %5, i64 60
  tail call void @llvm.memset.p0.i64(ptr noundef nonnull align 8 dereferenceable(20) %10, i8 0, i64 20, i1 false)
  store i32 1073741823, ptr %11, align 4
  %12 = getelementptr inbounds nuw i8, ptr %5, i64 64
  tail call void @llvm.memset.p0.i64(ptr noundef nonnull align 8 dereferenceable(24) %12, i8 0, i64 24, i1 false)
  %13 = trunc i32 %1 to i16
  %14 = call i32 @pg_itoa(i16 noundef signext %13, ptr noundef nonnull %4) #10
  %15 = getelementptr inbounds nuw i8, ptr %0, i64 8
  %16 = load ptr, ptr %15, align 8
  %17 = call ptr @BufFileOpenFileSet(ptr noundef %16, ptr noundef nonnull %4, i32 noundef 0, i1 noundef zeroext false) #10
  %18 = call i64 @BufFileSize(ptr noundef %17) #10
  %19 = load i64, ptr %2, align 8
  store i64 %19, ptr %9, align 8
  %20 = load ptr, ptr %0, align 8
  %21 = icmp eq ptr %20, null
  br i1 %21, label %22, label %23

22:                                               ; preds = %3
  store ptr %17, ptr %0, align 8
  br label %25

23:                                               ; preds = %3
  %24 = call i64 @BufFileAppend(ptr noundef nonnull %20, ptr noundef %17) #10
  br label %25

25:                                               ; preds = %23, %22
  %storemerge = phi i64 [ %24, %23 ], [ 0, %22 ]
  store i64 %storemerge, ptr %10, align 8
  %26 = call i64 @llvm.umin.i64(i64 %18, i64 1073741823)
  %27 = trunc nuw nsw i64 %26 to i32
  store i32 %27, ptr %11, align 4
  %28 = sdiv i64 %18, 8192
  %29 = getelementptr inbounds nuw i8, ptr %0, i64 24
  %30 = load i64, ptr %29, align 8
  %31 = sub i64 %storemerge, %30
  %32 = getelementptr inbounds nuw i8, ptr %0, i64 40
  %33 = load i64, ptr %32, align 8
  %34 = add i64 %31, %33
  store i64 %34, ptr %32, align 8
  %35 = load i64, ptr %10, align 8
  %36 = add i64 %35, %28
  store i64 %36, ptr %29, align 8
  %37 = getelementptr inbounds nuw i8, ptr %0, i64 32
  store i64 %36, ptr %37, align 8
  call void @llvm.lifetime.end.p0(i64 1024, ptr nonnull %4) #10
  ret ptr %5
}